; Function Attrs: mustprogress uwtable
define void @_ZN10open_spiel10battleship15BattleshipState10UndoActionEil(ptr noundef nonnull align 8 captures(none) dereferenceable(104) %0, i32 noundef %1, i64 noundef %2) unnamed_addr #3 align 2 personality ptr @__gxx_personality_v0 {
  %4 = alloca i64, align 8
  %5 = alloca i32, align 4
  %6 = alloca %"class.std::__cxx11::basic_string", align 8
  %7 = alloca i32, align 4
  %8 = alloca %"struct.open_spiel::State::PlayerAction", align 8
  %9 = alloca %"class.std::__cxx11::basic_string", align 8
  %10 = alloca i32, align 4
  %11 = getelementptr inbounds nuw i8, ptr %0, i64 80
  %12 = getelementptr inbounds nuw i8, ptr %0, i64 88
  %13 = load ptr, ptr %12, align 8
  %14 = load ptr, ptr %11, align 8
  %15 = ptrtoint ptr %13 to i64
  %16 = ptrtoint ptr %14 to i64
  %17 = sub i64 %15, %16
  %18 = sdiv exact i64 %17, 48
  store i64 %18, ptr %4, align 8
  store i32 0, ptr %5, align 4
  %.not = icmp eq ptr %13, %14
  br i1 %.not, label %19, label %23

19:                                               ; preds = %3
  store i32 437, ptr %7, align 4
  call void @_ZN10open_spiel8internal11SpielStrCatIJRA140_KcRA2_S2_iS6_RA18_S2_RA15_S2_RA4_S2_RmRA7_S2_RiEEENSt7__cxx1112basic_stringIcSt11char_traitsIcESaIcEEEDpOT_(ptr dead_on_unwind nonnull writable sret(%"class.std::__cxx11::basic_string") align 8 %6, ptr noundef nonnull align 1 dereferenceable(140) @.str, ptr noundef nonnull align 1 dereferenceable(2) @.str.1, ptr noundef nonnull align 4 dereferenceable(4) %7, ptr noundef nonnull align 1 dereferenceable(2) @.str.2, ptr noundef nonnull align 1 dereferenceable(18) @.str.31, ptr noundef nonnull align 1 dereferenceable(15) @.str.32, ptr noundef nonnull align 1 dereferenceable(4) @.str.5, ptr noundef nonnull align 8 dereferenceable(8) %4, ptr noundef nonnull align 1 dereferenceable(7) @.str.6, ptr noundef nonnull align 4 dereferenceable(4) %5)
  invoke void @_ZN10open_spiel15SpielFatalErrorERKNSt7__cxx1112basic_stringIcSt11char_traitsIcESaIcEEE(ptr noundef nonnull align 8 dereferenceable(32) %6) #28
          to label %20 unwind label %21

20:                                               ; preds = %19
  unreachable

21:                                               ; preds = %19
  %22 = landingpad { ptr, i32 }
          cleanup
  br label %41

23:                                               ; preds = %3
  %24 = getelementptr inbounds nuw i8, ptr %0, i64 40
  %25 = load ptr, ptr %24, align 8
  %26 = getelementptr inbounds i8, ptr %25, i64 -16
  store i32 %1, ptr %8, align 8
  %27 = getelementptr inbounds nuw i8, ptr %8, i64 8
  store i64 %2, ptr %27, align 8
  %28 = call noundef zeroext i1 @_ZNK10open_spiel5State12PlayerActioneqERKS1_(ptr noundef nonnull align 8 dereferenceable(16) %26, ptr noundef nonnull align 8 dereferenceable(16) %8)
  br i1 %28, label %33, label %29

29:                                               ; preds = %23
  store i32 441, ptr %10, align 4
  call void @_ZN10open_spiel8internal11SpielStrCatIJRA140_KcRA2_S2_iRA13_S2_RA53_S2_S6_EEENSt7__cxx1112basic_stringIcSt11char_traitsIcESaIcEEEDpOT_(ptr dead_on_unwind nonnull writable sret(%"class.std::__cxx11::basic_string") align 8 %9, ptr noundef nonnull align 1 dereferenceable(140) @.str, ptr noundef nonnull align 1 dereferenceable(2) @.str.1, ptr noundef nonnull align 4 dereferenceable(4) %10, ptr noundef nonnull align 1 dereferenceable(13) @.str.11, ptr noundef nonnull align 1 dereferenceable(53) @.str.33, ptr noundef nonnull align 1 dereferenceable(2) @.str.13)
  invoke void @_ZN10open_spiel15SpielFatalErrorERKNSt7__cxx1112basic_stringIcSt11char_traitsIcESaIcEEE(ptr noundef nonnull align 8 dereferenceable(32) %9) #28
          to label %30 unwind label %31

30:                                               ; preds = %29
  unreachable

31:                                               ; preds = %29
  %32 = landingpad { ptr, i32 }
          cleanup
  br label %41

33:                                               ; preds = %23
  %34 = load ptr, ptr %24, align 8
  %35 = getelementptr inbounds i8, ptr %34, i64 -16
  store ptr %35, ptr %24, align 8
  %36 = load ptr, ptr %12, align 8
  %37 = getelementptr inbounds i8, ptr %36, i64 -48
  store ptr %37, ptr %12, align 8
  %38 = getelementptr inbounds nuw i8, ptr %0, i64 56
  %39 = load i32, ptr %38, align 8
  %40 = add nsw i32 %39, -1
  store i32 %40, ptr %38, align 8
  ret void

41:                                               ; preds = %31, %21
  %.sink = phi ptr [ %9, %31 ], [ %6, %21 ]
  %.pn = phi { ptr, i32 } [ %32, %31 ], [ %22, %21 ]
  call void @_ZNSt7__cxx1112basic_stringIcSt11char_traitsIcESaIcEED1Ev(ptr noundef nonnull align 8 dereferenceable(32) %.sink) #27
  resume { ptr, i32 } %.pn
}